target datalayout = "e-m:e-p270:32:32-p271:32:32-p272:64:64-i64:64-i128:128-f80:128-n8:16:32:64-S128"
target triple = "x86_64-pc-linux-gnu"

%struct.AVCodecContext = type { ptr, i32, i32, ptr, i32, i32, ptr, ptr, ptr, i64, i32, i32, ptr, i32, %struct.AVRational, %struct.AVRational, %struct.AVRational, i32, i32, i32, i32, i32, %struct.AVRational, i32, i32, i32, i32, i32, i32, i32, i32, i32, i32, i32, ptr, ptr, i32, float, float, float, float, float, float, float, float, float, i32, i32, i32, i32, i32, i32, i32, i32, i32, i32, i32, i32, ptr, ptr, ptr, i32, i32, i32, i32, i32, i32, i32, i32, i32, i32, %struct.AVChannelLayout, i32, i32, i32, i32, i32, i32, i32, i32, ptr, i32, i32, i32, float, float, i32, i32, i32, i32, i32, ptr, i64, i64, float, float, i32, i32, ptr, ptr, i32, i32, i32, i32, i32, ptr, ptr, ptr, ptr, i32, i32, [8 x i64], i32, i32, i32, i32, i32, i32, i32, ptr, ptr, i32, i32, i32, i32, i32, i32, i32, i32, i32, i32, ptr, ptr, i32, i32, ptr, ptr, ptr, ptr, i32, i32, i64, i32, i32, i64, ptr, i64, ptr, i32, ptr, i32 }
%struct.AVRational = type { i32, i32 }
%struct.AVChannelLayout = type { i32, i32, %union.anon, ptr }
%union.anon = type { i64 }
%struct.AV1DecContext = type { ptr, ptr, i32, ptr, %struct.CodedBitstreamFragment, ptr, ptr, ptr, ptr, ptr, ptr, ptr, ptr, ptr, ptr, ptr, %struct.DOVIContext, ptr, i16, i16, i16, i32, [8 x %struct.AV1Frame], %struct.AV1Frame, i32, i32, i32 }
%struct.CodedBitstreamFragment = type { ptr, i64, i64, ptr, i32, i32, ptr }
%struct.DOVIContext = type { ptr, i32, %struct.AVDOVIDecoderConfigurationRecord, %struct.AVDOVIRpuDataHeader, ptr, ptr, ptr, ptr, [16 x ptr], ptr, i32 }
%struct.AVDOVIDecoderConfigurationRecord = type { i8, i8, i8, i8, i8, i8, i8, i8, i8 }
%struct.AVDOVIRpuDataHeader = type { i8, i16, i8, i8, i8, i8, i8, i8, i8, i8, i8, i8, i8, i8, i8, i8, i8 }
%struct.AV1Frame = type { %union.anon.0, ptr, ptr, ptr, i32, i32, [8 x i8], [8 x i8], [8 x [6 x i32]], [2 x i8], %struct.AV1RawFilmGrainParams, i8, i8, [8 x i8], [8 x i8], i8 }
%union.anon.0 = type { %struct.ProgressFrame }
%struct.ProgressFrame = type { ptr, ptr }
%struct.AV1RawFilmGrainParams = type { i8, i16, i8, i8, i8, [14 x i8], [14 x i8], i8, i8, [10 x i8], [10 x i8], i8, [10 x i8], [10 x i8], i8, i8, [24 x i8], [25 x i8], [25 x i8], i8, i8, i8, i8, i16, i8, i8, i16, i8, i8 }
%struct.AVCodecInternal = type { i32, i32, i32, ptr, ptr, ptr, ptr, ptr, ptr, ptr, i32, ptr, ptr, ptr, i32, i32, ptr, i32, ptr, ptr, i32, i32 }
%struct.VAAPIAV1DecContext = type { %struct.VAAPIDecodeContext, [8 x %struct.VAAPIAV1FrameRef], ptr, i32, ptr }
%struct.VAAPIDecodeContext = type { i32, i32, ptr, ptr, ptr, ptr, i32, i32, %struct._VASurfaceAttrib }
%struct._VASurfaceAttrib = type { i32, i32, %struct._VAGenericValue }
%struct._VAGenericValue = type { i32, %union.anon.17 }
%union.anon.17 = type { ptr }
%struct.VAAPIAV1FrameRef = type { ptr, i32 }
%struct.AVFrame = type { [8 x ptr], [8 x i32], ptr, i32, i32, i32, i32, i32, %struct.AVRational, i64, i64, %struct.AVRational, i32, ptr, i32, i32, [8 x ptr], ptr, i32, ptr, i32, i32, i32, i32, i32, i32, i32, i64, ptr, i32, ptr, ptr, i64, i64, i64, i64, ptr, %struct.AVChannelLayout, i64 }
%struct.AV1RawFrameHeader = type { i8, i8, i32, i32, i8, i8, i8, i8, i8, i8, i8, i32, i8, i8, i8, [32 x i32], i8, i16, i16, i8, i8, i8, i16, i16, [7 x i8], i8, i8, [8 x i8], i8, i8, i8, [7 x i8], [7 x i32], i8, i8, i8, i8, i8, i8, i8, i8, i8, [64 x i8], [64 x i8], [64 x i8], [64 x i8], i16, i8, i16, i16, i8, i8, i8, i8, i8, i8, i8, i8, i8, i8, i8, i8, i8, i8, i8, [8 x [8 x i8]], [8 x [8 x i16]], i8, i8, i8, i8, i8, [4 x i8], i8, i8, i8, [8 x i8], [8 x i8], [2 x i8], [2 x i8], i8, i8, [8 x i8], [8 x i8], [8 x i8], [8 x i8], [3 x i8], i8, i8, i8, i8, i8, i8, i8, [8 x i8], [8 x i8], [8 x i8], [8 x [6 x i32]], %struct.AV1RawFilmGrainParams }

; Function Attrs: nounwind uwtable
define internal i32 @vaapi_av1_end_frame(ptr noundef %0) #0 {
  %2 = alloca i32, align 4
  %3 = alloca ptr, align 8
  %4 = alloca ptr, align 8
  %5 = alloca ptr, align 8
  %6 = alloca ptr, align 8
  %7 = alloca ptr, align 8
  %8 = alloca ptr, align 8
  %9 = alloca i32, align 4
  %10 = alloca i32, align 4
  %11 = alloca i32, align 4
  %12 = alloca i32, align 4
  store ptr %0, ptr %3, align 8, !tbaa !4
  call void @llvm.lifetime.start.p0(i64 8, ptr %4) #8
  %13 = load ptr, ptr %3, align 8, !tbaa !4
  %14 = getelementptr inbounds nuw %struct.AVCodecContext, ptr %13, i32 0, i32 6
  %15 = load ptr, ptr %14, align 8, !tbaa !15
  store ptr %15, ptr %4, align 8, !tbaa !32
  call void @llvm.lifetime.start.p0(i64 8, ptr %5) #8
  %16 = load ptr, ptr %4, align 8, !tbaa !32
  %17 = getelementptr inbounds nuw %struct.AV1DecContext, ptr %16, i32 0, i32 10
  %18 = load ptr, ptr %17, align 8, !tbaa !57
  store ptr %18, ptr %5, align 8, !tbaa !58
  call void @llvm.lifetime.start.p0(i64 8, ptr %6) #8
  %19 = load ptr, ptr %4, align 8, !tbaa !32
  %20 = getelementptr inbounds nuw %struct.AV1DecContext, ptr %19, i32 0, i32 23
  %21 = getelementptr inbounds nuw %struct.AV1Frame, ptr %20, i32 0, i32 10
  store ptr %21, ptr %6, align 8, !tbaa !59
  call void @llvm.lifetime.start.p0(i64 8, ptr %7) #8
  %22 = load ptr, ptr %4, align 8, !tbaa !32
  %23 = getelementptr inbounds nuw %struct.AV1DecContext, ptr %22, i32 0, i32 23
  %24 = getelementptr inbounds nuw %struct.AV1Frame, ptr %23, i32 0, i32 1
  %25 = load ptr, ptr %24, align 8, !tbaa !61
  store ptr %25, ptr %7, align 8, !tbaa !62
  call void @llvm.lifetime.start.p0(i64 8, ptr %8) #8
  %26 = load ptr, ptr %3, align 8, !tbaa !4
  %27 = getelementptr inbounds nuw %struct.AVCodecContext, ptr %26, i32 0, i32 7
  %28 = load ptr, ptr %27, align 8, !tbaa !64
  %29 = getelementptr inbounds nuw %struct.AVCodecInternal, ptr %28, i32 0, i32 16
  %30 = load ptr, ptr %29, align 8, !tbaa !65
  store ptr %30, ptr %8, align 8, !tbaa !71
  call void @llvm.lifetime.start.p0(i64 4, ptr %9) #8
  %31 = load ptr, ptr %3, align 8, !tbaa !4
  %32 = getelementptr inbounds nuw %struct.AVCodecContext, ptr %31, i32 0, i32 140
  %33 = load i32, ptr %32, align 4, !tbaa !73
  %34 = and i32 %33, 8
  %35 = icmp ne i32 %34, 0
  br i1 %35, label %42, label %36

36:                                               ; preds = %1
  %37 = load ptr, ptr %6, align 8, !tbaa !59
  %38 = getelementptr inbounds nuw %struct.AV1RawFilmGrainParams, ptr %37, i32 0, i32 0
  %39 = load i8, ptr %38, align 2, !tbaa !74
  %40 = zext i8 %39 to i32
  %41 = icmp ne i32 %40, 0
  br label %42

42:                                               ; preds = %36, %1
  %43 = phi i1 [ false, %1 ], [ %41, %36 ]
  %44 = zext i1 %43 to i32
  store i32 %44, ptr %9, align 4, !tbaa !13
  call void @llvm.lifetime.start.p0(i64 4, ptr %10) #8
  %45 = load ptr, ptr %3, align 8, !tbaa !4
  %46 = load ptr, ptr %7, align 8, !tbaa !62
  %47 = call i32 @ff_vaapi_decode_issue(ptr noundef %45, ptr noundef %46)
  store i32 %47, ptr %10, align 4, !tbaa !13
  %48 = load i32, ptr %10, align 4, !tbaa !13
  %49 = icmp slt i32 %48, 0
  br i1 %49, label %50, label %52

50:                                               ; preds = %42
  %51 = load i32, ptr %10, align 4, !tbaa !13
  store i32 %51, ptr %2, align 4
  store i32 1, ptr %11, align 4
  br label %127

52:                                               ; preds = %42
  call void @llvm.lifetime.start.p0(i64 4, ptr %12) #8
  store i32 0, ptr %12, align 4, !tbaa !13
  br label %53

53:                                               ; preds = %121, %52
  %54 = load i32, ptr %12, align 4, !tbaa !13
  %55 = icmp slt i32 %54, 8
  br i1 %55, label %57, label %56

56:                                               ; preds = %53
  store i32 2, ptr %11, align 4
  br label %124

57:                                               ; preds = %53
  %58 = load ptr, ptr %5, align 8, !tbaa !58
  %59 = getelementptr inbounds nuw %struct.AV1RawFrameHeader, ptr %58, i32 0, i32 25
  %60 = load i8, ptr %59, align 1, !tbaa !270
  %61 = zext i8 %60 to i32
  %62 = load i32, ptr %12, align 4, !tbaa !13
  %63 = shl i32 1, %62
  %64 = and i32 %61, %63
  %65 = icmp ne i32 %64, 0
  br i1 %65, label %66, label %120

66:                                               ; preds = %57
  %67 = load ptr, ptr %8, align 8, !tbaa !71
  %68 = getelementptr inbounds nuw %struct.VAAPIAV1DecContext, ptr %67, i32 0, i32 1
  %69 = load i32, ptr %12, align 4, !tbaa !13
  %70 = sext i32 %69 to i64
  %71 = getelementptr inbounds [8 x %struct.VAAPIAV1FrameRef], ptr %68, i64 0, i64 %70
  %72 = getelementptr inbounds nuw %struct.VAAPIAV1FrameRef, ptr %71, i32 0, i32 0
  %73 = load ptr, ptr %72, align 8, !tbaa !226
  %74 = getelementptr inbounds nuw %struct.AVFrame, ptr %73, i32 0, i32 16
  %75 = getelementptr inbounds [8 x ptr], ptr %74, i64 0, i64 0
  %76 = load ptr, ptr %75, align 8, !tbaa !9
  %77 = icmp ne ptr %76, null
  br i1 %77, label %78, label %86

78:                                               ; preds = %66
  %79 = load ptr, ptr %8, align 8, !tbaa !71
  %80 = getelementptr inbounds nuw %struct.VAAPIAV1DecContext, ptr %79, i32 0, i32 1
  %81 = load i32, ptr %12, align 4, !tbaa !13
  %82 = sext i32 %81 to i64
  %83 = getelementptr inbounds [8 x %struct.VAAPIAV1FrameRef], ptr %80, i64 0, i64 %82
  %84 = getelementptr inbounds nuw %struct.VAAPIAV1FrameRef, ptr %83, i32 0, i32 0
  %85 = load ptr, ptr %84, align 8, !tbaa !226
  call void @av_frame_unref(ptr noundef %85)
  br label %86

86:                                               ; preds = %78, %66
  %87 = load i32, ptr %9, align 4, !tbaa !13
  %88 = icmp ne i32 %87, 0
  br i1 %88, label %89, label %112

89:                                               ; preds = %86
  %90 = load ptr, ptr %8, align 8, !tbaa !71
  %91 = getelementptr inbounds nuw %struct.VAAPIAV1DecContext, ptr %90, i32 0, i32 1
  %92 = load i32, ptr %12, align 4, !tbaa !13
  %93 = sext i32 %92 to i64
  %94 = getelementptr inbounds [8 x %struct.VAAPIAV1FrameRef], ptr %91, i64 0, i64 %93
  %95 = getelementptr inbounds nuw %struct.VAAPIAV1FrameRef, ptr %94, i32 0, i32 0
  %96 = load ptr, ptr %95, align 8, !tbaa !226
  %97 = load ptr, ptr %8, align 8, !tbaa !71
  %98 = getelementptr inbounds nuw %struct.VAAPIAV1DecContext, ptr %97, i32 0, i32 2
  %99 = load ptr, ptr %98, align 8, !tbaa !76
  %100 = call i32 @av_frame_ref(ptr noundef %96, ptr noundef %99)
  store i32 %100, ptr %10, align 4, !tbaa !13
  %101 = load i32, ptr %10, align 4, !tbaa !13
  %102 = icmp slt i32 %101, 0
  br i1 %102, label %103, label %105

103:                                              ; preds = %89
  %104 = load i32, ptr %10, align 4, !tbaa !13
  store i32 %104, ptr %2, align 4
  store i32 1, ptr %11, align 4
  br label %124

105:                                              ; preds = %89
  %106 = load ptr, ptr %8, align 8, !tbaa !71
  %107 = getelementptr inbounds nuw %struct.VAAPIAV1DecContext, ptr %106, i32 0, i32 1
  %108 = load i32, ptr %12, align 4, !tbaa !13
  %109 = sext i32 %108 to i64
  %110 = getelementptr inbounds [8 x %struct.VAAPIAV1FrameRef], ptr %107, i64 0, i64 %109
  %111 = getelementptr inbounds nuw %struct.VAAPIAV1FrameRef, ptr %110, i32 0, i32 1
  store i32 1, ptr %111, align 8, !tbaa !224
  br label %119

112:                                              ; preds = %86
  %113 = load ptr, ptr %8, align 8, !tbaa !71
  %114 = getelementptr inbounds nuw %struct.VAAPIAV1DecContext, ptr %113, i32 0, i32 1
  %115 = load i32, ptr %12, align 4, !tbaa !13
  %116 = sext i32 %115 to i64
  %117 = getelementptr inbounds [8 x %struct.VAAPIAV1FrameRef], ptr %114, i64 0, i64 %116
  %118 = getelementptr inbounds nuw %struct.VAAPIAV1FrameRef, ptr %117, i32 0, i32 1
  store i32 0, ptr %118, align 8, !tbaa !224
  br label %119

119:                                              ; preds = %112, %105
  br label %120

120:                                              ; preds = %119, %57
  br label %121

121:                                              ; preds = %120
  %122 = load i32, ptr %12, align 4, !tbaa !13
  %123 = add nsw i32 %122, 1
  store i32 %123, ptr %12, align 4, !tbaa !13
  br label %53, !llvm.loop !271

124:                                              ; preds = %103, %56
  call void @llvm.lifetime.end.p0(i64 4, ptr %12) #8
  %125 = load i32, ptr %11, align 4
  switch i32 %125, label %127 [
    i32 2, label %126
  ]

126:                                              ; preds = %124
  store i32 0, ptr %2, align 4
  store i32 1, ptr %11, align 4
  br label %127

127:                                              ; preds = %126, %124, %50
  call void @llvm.lifetime.end.p0(i64 4, ptr %10) #8
  call void @llvm.lifetime.end.p0(i64 4, ptr %9) #8
  call void @llvm.lifetime.end.p0(i64 8, ptr %8) #8
  call void @llvm.lifetime.end.p0(i64 8, ptr %7) #8
  call void @llvm.lifetime.end.p0(i64 8, ptr %6) #8
  call void @llvm.lifetime.end.p0(i64 8, ptr %5) #8
  call void @llvm.lifetime.end.p0(i64 8, ptr %4) #8
  %128 = load i32, ptr %2, align 4
  ret i32 %128
}