; Function Attrs: nounwind uwtable
define internal range(i32 -2147483648, 1) i32 @vaapi_av1_end_frame(ptr noundef %0) #0 {
  %2 = getelementptr inbounds nuw i8, ptr %0, i64 32
  %3 = load ptr, ptr %2, align 8, !tbaa !4
  %4 = getelementptr inbounds nuw i8, ptr %3, i64 120
  %5 = load ptr, ptr %4, align 8, !tbaa !50
  %6 = getelementptr inbounds nuw i8, ptr %3, i64 4016
  %7 = load ptr, ptr %6, align 8, !tbaa !51
  %8 = getelementptr inbounds nuw i8, ptr %0, i64 40
  %9 = load ptr, ptr %8, align 8, !tbaa !52
  %10 = getelementptr inbounds nuw i8, ptr %9, i64 112
  %11 = load ptr, ptr %10, align 8, !tbaa !53
  %12 = getelementptr inbounds nuw i8, ptr %0, i64 788
  %13 = load i32, ptr %12, align 4, !tbaa !59
  %14 = and i32 %13, 8
  %.not = icmp eq i32 %14, 0
  br i1 %.not, label %15, label %.thread

15:                                               ; preds = %1
  %16 = getelementptr inbounds nuw i8, ptr %3, i64 4258
  %17 = load i8, ptr %16, align 2, !tbaa !60
  %18 = tail call i32 @ff_vaapi_decode_issue(ptr noundef nonnull %0, ptr noundef %7) #6
  %19 = icmp slt i32 %18, 0
  br i1 %19, label %.loopexit, label %.preheader

.thread:                                          ; preds = %1
  %20 = tail call i32 @ff_vaapi_decode_issue(ptr noundef nonnull %0, ptr noundef %7) #6
  %21 = icmp slt i32 %20, 0
  br i1 %21, label %.loopexit, label %.preheader.thread

.preheader.thread:                                ; preds = %.thread
  %22 = getelementptr inbounds nuw i8, ptr %5, i64 177
  br label %.preheader.split.preheader

.preheader:                                       ; preds = %15
  %.fr37 = freeze i8 %17
  %.not48 = icmp eq i8 %.fr37, 0
  %23 = getelementptr inbounds nuw i8, ptr %5, i64 177
  %24 = getelementptr inbounds nuw i8, ptr %11, i64 72
  %25 = getelementptr inbounds nuw i8, ptr %11, i64 200
  br i1 %.not48, label %.preheader.split.preheader, label %.preheader.split.us

.preheader.split.preheader:                       ; preds = %.preheader.thread, %.preheader
  %26 = phi ptr [ %22, %.preheader.thread ], [ %23, %.preheader ]
  %27 = getelementptr inbounds nuw i8, ptr %11, i64 72
  br label %.preheader.split

.preheader.split.us:                              ; preds = %.preheader, %46
  %indvars.iv40 = phi i64 [ %indvars.iv.next41, %46 ], [ 0, %.preheader ]
  %28 = load i8, ptr %23, align 1, !tbaa !208
  %29 = zext i8 %28 to i32
  %30 = trunc nuw nsw i64 %indvars.iv40 to i32
  %31 = shl nuw nsw i32 1, %30
  %32 = and i32 %31, %29
  %.not34.us = icmp eq i32 %32, 0
  br i1 %.not34.us, label %46, label %33

33:                                               ; preds = %.preheader.split.us
  %34 = getelementptr inbounds nuw [8 x %struct.VAAPIAV1FrameRef], ptr %24, i64 0, i64 %indvars.iv40
  %35 = load ptr, ptr %34, align 8, !tbaa !177
  %36 = getelementptr inbounds nuw i8, ptr %35, i64 184
  %37 = load ptr, ptr %36, align 8, !tbaa !78
  %.not35.us = icmp eq ptr %37, null
  br i1 %.not35.us, label %39, label %38

38:                                               ; preds = %33
  tail call void @av_frame_unref(ptr noundef nonnull %35) #6
  %.pre = load ptr, ptr %34, align 8, !tbaa !177
  br label %39

39:                                               ; preds = %38, %33
  %40 = phi ptr [ %.pre, %38 ], [ %35, %33 ]
  %41 = load ptr, ptr %25, align 8, !tbaa !68
  %42 = tail call i32 @av_frame_ref(ptr noundef %40, ptr noundef %41) #6
  %43 = icmp slt i32 %42, 0
  br i1 %43, label %.loopexit, label %44

44:                                               ; preds = %39
  %45 = getelementptr inbounds nuw i8, ptr %34, i64 8
  store i32 1, ptr %45, align 8, !tbaa !175
  br label %46

46:                                               ; preds = %44, %.preheader.split.us
  %indvars.iv.next41 = add nuw nsw i64 %indvars.iv40, 1
  %exitcond43 = icmp eq i64 %indvars.iv.next41, 8
  br i1 %exitcond43, label %.loopexit, label %.preheader.split.us, !llvm.loop !209

.preheader.split:                                 ; preds = %.preheader.split.preheader, %60
  %indvars.iv = phi i64 [ 0, %.preheader.split.preheader ], [ %indvars.iv.next, %60 ]
  %47 = load i8, ptr %26, align 1, !tbaa !208
  %48 = zext i8 %47 to i32
  %49 = trunc nuw nsw i64 %indvars.iv to i32
  %50 = shl nuw nsw i32 1, %49
  %51 = and i32 %50, %48
  %.not34 = icmp eq i32 %51, 0
  br i1 %.not34, label %60, label %52

52:                                               ; preds = %.preheader.split
  %53 = getelementptr inbounds nuw [8 x %struct.VAAPIAV1FrameRef], ptr %27, i64 0, i64 %indvars.iv
  %54 = load ptr, ptr %53, align 8, !tbaa !177
  %55 = getelementptr inbounds nuw i8, ptr %54, i64 184
  %56 = load ptr, ptr %55, align 8, !tbaa !78
  %.not35 = icmp eq ptr %56, null
  br i1 %.not35, label %58, label %57

57:                                               ; preds = %52
  tail call void @av_frame_unref(ptr noundef nonnull %54) #6
  br label %58

58:                                               ; preds = %57, %52
  %59 = getelementptr inbounds nuw i8, ptr %53, i64 8
  store i32 0, ptr %59, align 8, !tbaa !175
  br label %60

60:                                               ; preds = %.preheader.split, %58
  %indvars.iv.next = add nuw nsw i64 %indvars.iv, 1
  %exitcond = icmp eq i64 %indvars.iv.next, 8
  br i1 %exitcond, label %.loopexit, label %.preheader.split, !llvm.loop !209

.loopexit:                                        ; preds = %46, %39, %60, %.thread, %15
  %.031 = phi i32 [ %18, %15 ], [ %20, %.thread ], [ 0, %60 ], [ %42, %39 ], [ 0, %46 ]
  ret i32 %.031
}